target datalayout = "e-m:e-p270:32:32-p271:32:32-p272:64:64-i64:64-i128:128-f80:128-n8:16:32:64-S128"
target triple = "x86_64-pc-linux-gnu"

%"class.smt::qi_queue" = type { ptr, ptr, ptr, ptr, %"struct.smt::qi_queue_stats", %"class.smt::checker", %class.obj_ref, %class.obj_ref, %class.cost_parser, %class.cost_evaluator, %class.cached_var_subst, %class.svector.37, double, %class.svector.39, %class.svector.39, %class.ref_vector, %class.svector.29, %class.svector.41 }
%"struct.smt::qi_queue_stats" = type { i32, i32 }
%"class.smt::checker" = type { ptr, ptr, [2 x %class.obj_map], %class.obj_map.0, i32, ptr }
%class.obj_map = type { %class.core_hashtable }
%class.core_hashtable = type <{ ptr, i32, i32, i32, [4 x i8] }>
%class.obj_map.0 = type { %class.core_hashtable.1 }
%class.core_hashtable.1 = type <{ ptr, i32, i32, i32, [4 x i8] }>
%class.obj_ref = type { ptr, ptr }
%class.cost_parser = type { %class.simple_parser, %class.arith_util, %class.ref_vector.11 }
%class.simple_parser = type { ptr, ptr, %class.map, %class.map.7, %class.ref_vector }
%class.map = type { %class.table2map }
%class.table2map = type { %class.core_hashtable.5 }
%class.core_hashtable.5 = type <{ ptr, i32, i32, i32, [4 x i8] }>
%class.map.7 = type { %class.table2map.8 }
%class.table2map.8 = type { %class.core_hashtable.9 }
%class.core_hashtable.9 = type <{ ptr, i32, i32, i32, [4 x i8] }>
%class.arith_util = type { ptr, ptr }
%class.ref_vector.11 = type { %class.ref_vector_core.12 }
%class.ref_vector_core.12 = type { %class.ref_manager_wrapper.13, %class.ptr_vector.14 }
%class.ref_manager_wrapper.13 = type { ptr }
%class.ptr_vector.14 = type { %class.vector.15 }
%class.vector.15 = type { ptr }
%class.cost_evaluator = type { ptr, %class.arith_util, i32, ptr }
%class.cached_var_subst = type { ptr, %class.var_subst, %class.ref_vector, %class.map.31, %class.region, %class.ptr_vector.35, ptr }
%class.var_subst = type { %class.beta_reducer, i8, [7 x i8] }
%class.beta_reducer = type <{ %class.rewriter_tpl, [8 x i8] }>
%class.rewriter_tpl = type { %class.rewriter_core, ptr, i32, %class.ptr_vector, %class.var_shifter, %class.inv_var_shifter, %class.obj_ref, %class.obj_ref.28, %class.obj_ref.28, %class.svector.29 }
%class.rewriter_core = type { ptr, ptr, i8, i8, %class.ptr_vector.16, ptr, %class.svector, %class.ref_vector, %class.ptr_vector.16, ptr, %class.ref_vector.19, %class.obj_hashtable, ptr, i32, %class.svector.26 }
%class.svector = type { %class.vector.18 }
%class.vector.18 = type { ptr }
%class.ptr_vector.16 = type { %class.vector.17 }
%class.vector.17 = type { ptr }
%class.ref_vector.19 = type { %class.ref_vector_core.20 }
%class.ref_vector_core.20 = type { %class.ref_manager_wrapper.21, %class.ptr_vector.22 }
%class.ref_manager_wrapper.21 = type { ptr }
%class.ptr_vector.22 = type { %class.vector.23 }
%class.vector.23 = type { ptr }
%class.obj_hashtable = type { %class.core_hashtable.base.25, [4 x i8] }
%class.core_hashtable.base.25 = type <{ ptr, i32, i32, i32 }>
%class.svector.26 = type { %class.vector.27 }
%class.vector.27 = type { ptr }
%class.ptr_vector = type { %class.vector }
%class.vector = type { ptr }
%class.var_shifter = type <{ %class.var_shifter_core, i32, i32, i32, [4 x i8] }>
%class.var_shifter_core = type { %class.rewriter_core }
%class.inv_var_shifter = type <{ %class.var_shifter_core, i32, [4 x i8] }>
%class.obj_ref.28 = type { ptr, ptr }
%class.map.31 = type { %class.table2map.32 }
%class.table2map.32 = type { %class.core_hashtable.33 }
%class.core_hashtable.33 = type <{ ptr, i32, i32, i32, [4 x i8] }>
%class.region = type { ptr, ptr, ptr, ptr, ptr }
%class.ptr_vector.35 = type { %class.vector.36 }
%class.vector.36 = type { ptr }
%class.svector.37 = type { %class.vector.38 }
%class.vector.38 = type { ptr }
%class.svector.39 = type { %class.vector.40 }
%class.vector.40 = type { ptr }
%class.ref_vector = type { %class.ref_vector_core }
%class.ref_vector_core = type { %class.ref_manager_wrapper, %class.ptr_vector }
%class.ref_manager_wrapper = type { ptr }
%class.svector.29 = type { %class.vector.30 }
%class.vector.30 = type { ptr }
%class.svector.41 = type { %class.vector.42 }
%class.vector.42 = type { ptr }
%struct.qi_params = type { %"class.std::__cxx11::basic_string", %"class.std::__cxx11::basic_string", double, double, i32, i32, i8, i32, i32, i8, i8, i32, i8, i8, i8, i8, i32, i32, i32, i8, i32, ptr }
%"class.std::__cxx11::basic_string" = type { %"struct.std::__cxx11::basic_string<char>::_Alloc_hider", i64, %union.anon }
%"struct.std::__cxx11::basic_string<char>::_Alloc_hider" = type { ptr }
%union.anon = type { i64, [8 x i8] }

@.str = private unnamed_addr constant [53 x i8] c"invalid cost function '%s', switching to default one\00", align 1
@.str.5 = private unnamed_addr constant [22 x i8] c"(+ weight generation)\00", align 1
@.str.6 = private unnamed_addr constant [104 x i8] c"generated/home/dtcxzyw/WorkSpace/Projects/compilers/llvm-opt-benchmark/bench/z3/z3/src/smt/qi_queue.cpp\00", align 1
@.str.7 = private unnamed_addr constant [83 x i8] c"Failed to verify: m_parser.parse_string(\22(+ weight generation)\22, m_cost_function)\0A\00", align 1
@.str.8 = private unnamed_addr constant [56 x i8] c"invalid new_gen function '%s', switching to default one\00", align 1
@.str.9 = private unnamed_addr constant [5 x i8] c"cost\00", align 1
@.str.10 = private unnamed_addr constant [69 x i8] c"Failed to verify: m_parser.parse_string(\22cost\22, m_new_gen_function)\0A\00", align 1

; Function Attrs: noinline noreturn nounwind uwtable
define linkonce_odr hidden void @__clang_call_terminate(ptr noundef %0) #11 comdat {
  %2 = call ptr @__cxa_begin_catch(ptr %0) #3
  call void @_ZSt9terminatev() #19
  unreachable
}

; Function Attrs: mustprogress nounwind uwtable
define linkonce_odr hidden noundef ptr @_ZNKSt7__cxx1112basic_stringIcSt11char_traitsIcESaIcEE7_M_dataEv(ptr noundef nonnull align 8 dereferenceable(32) %0) #4 comdat align 2 {
  %2 = alloca ptr, align 8
  store ptr %0, ptr %2, align 8, !tbaa !619
  %3 = load ptr, ptr %2, align 8
  %4 = getelementptr inbounds nuw %"class.std::__cxx11::basic_string", ptr %3, i32 0, i32 0
  %5 = getelementptr inbounds nuw %"struct.std::__cxx11::basic_string<char>::_Alloc_hider", ptr %4, i32 0, i32 0
  %6 = load ptr, ptr %5, align 8, !tbaa !871
  ret ptr %6
}

; Function Attrs: mustprogress nounwind uwtable
define linkonce_odr hidden noundef ptr @_ZNKSt7__cxx1112basic_stringIcSt11char_traitsIcESaIcEE5c_strEv(ptr noundef nonnull align 8 dereferenceable(32) %0) #4 comdat align 2 personality ptr @__gxx_personality_v0 {
  %2 = alloca ptr, align 8
  store ptr %0, ptr %2, align 8, !tbaa !619
  %3 = load ptr, ptr %2, align 8
  %4 = invoke noundef ptr @_ZNKSt7__cxx1112basic_stringIcSt11char_traitsIcESaIcEE7_M_dataEv(ptr noundef nonnull align 8 dereferenceable(32) %3)
          to label %5 unwind label %6

5:                                                ; preds = %1
  ret ptr %4

6:                                                ; preds = %1
  %7 = landingpad { ptr, i32 }
          catch ptr null
  %8 = extractvalue { ptr, i32 } %7, 0
  call void @__clang_call_terminate(ptr %8) #19
  unreachable
}

; Function Attrs: mustprogress uwtable
define hidden void @_ZN3smt8qi_queue5setupEv(ptr noundef nonnull align 8 dereferenceable(1048) %0) #6 align 2 {
  %2 = alloca ptr, align 8
  store ptr %0, ptr %2, align 8, !tbaa !28
  %3 = load ptr, ptr %2, align 8
  %4 = getelementptr inbounds nuw %"class.smt::qi_queue", ptr %3, i32 0, i32 8
  %5 = getelementptr inbounds nuw %"class.smt::qi_queue", ptr %3, i32 0, i32 3
  %6 = load ptr, ptr %5, align 8, !tbaa !613
  %7 = getelementptr inbounds nuw %struct.qi_params, ptr %6, i32 0, i32 0
  %8 = call noundef ptr @_ZNKSt7__cxx1112basic_stringIcSt11char_traitsIcESaIcEE5c_strEv(ptr noundef nonnull align 8 dereferenceable(32) %7) #3
  %9 = getelementptr inbounds nuw %"class.smt::qi_queue", ptr %3, i32 0, i32 6
  %10 = call noundef zeroext i1 @_ZN13simple_parser12parse_stringEPKcR7obj_refI4expr11ast_managerE(ptr noundef nonnull align 8 dereferenceable(80) %4, ptr noundef %8, ptr noundef nonnull align 8 dereferenceable(16) %9)
  br i1 %10, label %21, label %11

11:                                               ; preds = %1
  %12 = getelementptr inbounds nuw %"class.smt::qi_queue", ptr %3, i32 0, i32 3
  %13 = load ptr, ptr %12, align 8, !tbaa !613
  %14 = getelementptr inbounds nuw %struct.qi_params, ptr %13, i32 0, i32 0
  %15 = call noundef ptr @_ZNKSt7__cxx1112basic_stringIcSt11char_traitsIcESaIcEE5c_strEv(ptr noundef nonnull align 8 dereferenceable(32) %14) #3
  call void (ptr, ...) @_Z11warning_msgPKcz(ptr noundef @.str, ptr noundef %15)
  %16 = getelementptr inbounds nuw %"class.smt::qi_queue", ptr %3, i32 0, i32 8
  %17 = getelementptr inbounds nuw %"class.smt::qi_queue", ptr %3, i32 0, i32 6
  %18 = call noundef zeroext i1 @_ZN13simple_parser12parse_stringEPKcR7obj_refI4expr11ast_managerE(ptr noundef nonnull align 8 dereferenceable(80) %16, ptr noundef @.str.5, ptr noundef nonnull align 8 dereferenceable(16) %17)
  br i1 %18, label %20, label %19

19:                                               ; preds = %11
  call void @_Z26notify_assertion_violationPKciS0_(ptr noundef @.str.6, i32 noundef 55, ptr noundef @.str.7)
  call void @_Z18invoke_exit_actionj(i32 noundef 114)
  br label %20

20:                                               ; preds = %19, %11
  br label %21

21:                                               ; preds = %20, %1
  %22 = getelementptr inbounds nuw %"class.smt::qi_queue", ptr %3, i32 0, i32 8
  %23 = getelementptr inbounds nuw %"class.smt::qi_queue", ptr %3, i32 0, i32 3
  %24 = load ptr, ptr %23, align 8, !tbaa !613
  %25 = getelementptr inbounds nuw %struct.qi_params, ptr %24, i32 0, i32 1
  %26 = call noundef ptr @_ZNKSt7__cxx1112basic_stringIcSt11char_traitsIcESaIcEE5c_strEv(ptr noundef nonnull align 8 dereferenceable(32) %25) #3
  %27 = getelementptr inbounds nuw %"class.smt::qi_queue", ptr %3, i32 0, i32 7
  %28 = call noundef zeroext i1 @_ZN13simple_parser12parse_stringEPKcR7obj_refI4expr11ast_managerE(ptr noundef nonnull align 8 dereferenceable(80) %22, ptr noundef %26, ptr noundef nonnull align 8 dereferenceable(16) %27)
  br i1 %28, label %39, label %29

29:                                               ; preds = %21
  %30 = getelementptr inbounds nuw %"class.smt::qi_queue", ptr %3, i32 0, i32 3
  %31 = load ptr, ptr %30, align 8, !tbaa !613
  %32 = getelementptr inbounds nuw %struct.qi_params, ptr %31, i32 0, i32 1
  %33 = call noundef ptr @_ZNKSt7__cxx1112basic_stringIcSt11char_traitsIcESaIcEE5c_strEv(ptr noundef nonnull align 8 dereferenceable(32) %32) #3
  call void (ptr, ...) @_Z11warning_msgPKcz(ptr noundef @.str.8, ptr noundef %33)
  %34 = getelementptr inbounds nuw %"class.smt::qi_queue", ptr %3, i32 0, i32 8
  %35 = getelementptr inbounds nuw %"class.smt::qi_queue", ptr %3, i32 0, i32 7
  %36 = call noundef zeroext i1 @_ZN13simple_parser12parse_stringEPKcR7obj_refI4expr11ast_managerE(ptr noundef nonnull align 8 dereferenceable(80) %34, ptr noundef @.str.9, ptr noundef nonnull align 8 dereferenceable(16) %35)
  br i1 %36, label %38, label %37

37:                                               ; preds = %29
  call void @_Z26notify_assertion_violationPKciS0_(ptr noundef @.str.6, i32 noundef 61, ptr noundef @.str.10)
  call void @_Z18invoke_exit_actionj(i32 noundef 114)
  br label %38

38:                                               ; preds = %37, %29
  br label %39

39:                                               ; preds = %38, %21
  %40 = getelementptr inbounds nuw %"class.smt::qi_queue", ptr %3, i32 0, i32 3
  %41 = load ptr, ptr %40, align 8, !tbaa !613
  %42 = getelementptr inbounds nuw %struct.qi_params, ptr %41, i32 0, i32 2
  %43 = load double, ptr %42, align 8, !tbaa !614
  %44 = getelementptr inbounds nuw %"class.smt::qi_queue", ptr %3, i32 0, i32 12
  store double %43, ptr %44, align 8, !tbaa !130
  ret void
}