; Function Attrs: mustprogress uwtable
define hidden void @_ZN3smt8qi_queue5setupEv(ptr noundef nonnull align 8 dereferenceable(1048) %0) local_unnamed_addr #4 align 2 personality ptr @__gxx_personality_v0 {
  %2 = getelementptr inbounds nuw i8, ptr %0, i64 176
  %3 = getelementptr inbounds nuw i8, ptr %0, i64 24
  %4 = load ptr, ptr %3, align 8, !tbaa !582
  %5 = load ptr, ptr %4, align 8, !tbaa !583
  %6 = getelementptr inbounds nuw i8, ptr %0, i64 144
  %7 = tail call noundef zeroext i1 @_ZN13simple_parser12parse_stringEPKcR7obj_refI4expr11ast_managerE(ptr noundef nonnull align 8 dereferenceable(80) %2, ptr noundef %5, ptr noundef nonnull align 8 dereferenceable(16) %6)
  br i1 %7, label %13, label %8

8:                                                ; preds = %1
  %9 = load ptr, ptr %3, align 8, !tbaa !582
  %10 = load ptr, ptr %9, align 8, !tbaa !583
  tail call void (ptr, ...) @_Z11warning_msgPKcz(ptr noundef nonnull @.str, ptr noundef %10)
  %11 = tail call noundef zeroext i1 @_ZN13simple_parser12parse_stringEPKcR7obj_refI4expr11ast_managerE(ptr noundef nonnull align 8 dereferenceable(80) %2, ptr noundef nonnull @.str.5, ptr noundef nonnull align 8 dereferenceable(16) %6)
  br i1 %11, label %13, label %12

12:                                               ; preds = %8
  tail call void @_Z26notify_assertion_violationPKciS0_(ptr noundef nonnull @.str.6, i32 noundef 55, ptr noundef nonnull @.str.7)
  tail call void @_Z18invoke_exit_actionj(i32 noundef 114)
  br label %13

13:                                               ; preds = %8, %12, %1
  %14 = load ptr, ptr %3, align 8, !tbaa !582
  %15 = getelementptr inbounds nuw i8, ptr %14, i64 32
  %16 = load ptr, ptr %15, align 8, !tbaa !583
  %17 = getelementptr inbounds nuw i8, ptr %0, i64 160
  %18 = tail call noundef zeroext i1 @_ZN13simple_parser12parse_stringEPKcR7obj_refI4expr11ast_managerE(ptr noundef nonnull align 8 dereferenceable(80) %2, ptr noundef %16, ptr noundef nonnull align 8 dereferenceable(16) %17)
  br i1 %18, label %25, label %19

19:                                               ; preds = %13
  %20 = load ptr, ptr %3, align 8, !tbaa !582
  %21 = getelementptr inbounds nuw i8, ptr %20, i64 32
  %22 = load ptr, ptr %21, align 8, !tbaa !583
  tail call void (ptr, ...) @_Z11warning_msgPKcz(ptr noundef nonnull @.str.8, ptr noundef %22)
  %23 = tail call noundef zeroext i1 @_ZN13simple_parser12parse_stringEPKcR7obj_refI4expr11ast_managerE(ptr noundef nonnull align 8 dereferenceable(80) %2, ptr noundef nonnull @.str.9, ptr noundef nonnull align 8 dereferenceable(16) %17)
  br i1 %23, label %25, label %24

24:                                               ; preds = %19
  tail call void @_Z26notify_assertion_violationPKciS0_(ptr noundef nonnull @.str.6, i32 noundef 61, ptr noundef nonnull @.str.10)
  tail call void @_Z18invoke_exit_actionj(i32 noundef 114)
  br label %25

25:                                               ; preds = %19, %24, %13
  %26 = load ptr, ptr %3, align 8, !tbaa !582
  %27 = getelementptr inbounds nuw i8, ptr %26, i64 64
  %28 = load double, ptr %27, align 8, !tbaa !586
  %29 = getelementptr inbounds nuw i8, ptr %0, i64 992
  store double %28, ptr %29, align 8, !tbaa !589
  ret void
}